; Function Attrs: nounwind uwtable
define void @avpriv_report_missing_feature(ptr noundef %0, ptr noundef %1, ...) local_unnamed_addr #1 {
  %3 = alloca [1 x %struct.__va_list_tag], align 16
  call void @llvm.lifetime.start.p0(i64 24, ptr nonnull %3) #14
  call void @llvm.va_start.p0(ptr nonnull %3)
  %.not.i.i = icmp eq ptr %0, null
  br i1 %.not.i.i, label %.thread.i.i, label %5

.thread.i.i:                                      ; preds = %2
  %4 = load ptr, ptr @av_log_callback, align 8, !tbaa !34
  br label %20

5:                                                ; preds = %2
  %6 = load ptr, ptr %0, align 8, !tbaa !4
  %7 = load ptr, ptr @av_log_callback, align 8, !tbaa !34
  %.not20.i.i = icmp eq ptr %6, null
  br i1 %.not20.i.i, label %20, label %8

8:                                                ; preds = %5
  %9 = getelementptr inbounds nuw i8, ptr %6, i64 24
  %10 = load i32, ptr %9, align 8, !tbaa !23
  %11 = icmp sgt i32 %10, 3280641
  br i1 %11, label %12, label %20

12:                                               ; preds = %8
  %13 = getelementptr inbounds nuw i8, ptr %6, i64 28
  %14 = load i32, ptr %13, align 4, !tbaa !35
  %.not5.i = icmp eq i32 %14, 0
  br i1 %.not5.i, label %20, label %15

15:                                               ; preds = %12
  %16 = sext i32 %14 to i64
  %17 = getelementptr inbounds i8, ptr %0, i64 %16
  %18 = load i32, ptr %17, align 4, !tbaa !17
  %19 = add nsw i32 %18, 24
  br label %20

20:                                               ; preds = %15, %12, %8, %5, %.thread.i.i
  %21 = phi ptr [ %7, %15 ], [ %7, %12 ], [ %7, %8 ], [ %7, %5 ], [ %4, %.thread.i.i ]
  %.0.i.i = phi i32 [ %19, %15 ], [ 24, %12 ], [ 24, %8 ], [ 24, %5 ], [ 24, %.thread.i.i ]
  %.not21.i.i = icmp eq ptr %21, null
  br i1 %.not21.i.i, label %missing_feature_sample.exit, label %22

22:                                               ; preds = %20
  call void %21(ptr noundef %0, i32 noundef %.0.i.i, ptr noundef %1, ptr noundef nonnull %3) #14
  br label %missing_feature_sample.exit

missing_feature_sample.exit:                      ; preds = %20, %22
  call void (ptr, i32, ptr, ...) @av_log(ptr noundef %0, i32 noundef 24, ptr noundef nonnull @.str.26)
  call void @llvm.va_end.p0(ptr nonnull %3)
  call void @llvm.lifetime.end.p0(i64 24, ptr nonnull %3) #14
  ret void
}